target datalayout = "e-m:e-p270:32:32-p271:32:32-p272:64:64-i64:64-i128:128-f80:128-n8:16:32:64-S128"
target triple = "x86_64-pc-linux-gnu"

%struct.ssl_connection_st = type { %struct.ssl_st, ptr, i32, ptr, ptr, ptr, i32, ptr, i32, i32, i32, i32, %struct.OSSL_TIME, %struct.OSSL_TIME, %struct.ossl_statem_st, i32, ptr, ptr, i64, i64, i64, %struct.ossl_quic_tls_callbacks_st, ptr, ptr, %struct.anon, ptr, ptr, ptr, i32, ptr, %struct.ssl_dane_st, ptr, ptr, ptr, ptr, i32, [64 x i8], [64 x i8], [64 x i8], [64 x i8], [64 x i8], [64 x i8], [64 x i8], [64 x i8], [64 x i8], [64 x i8], [64 x i8], [64 x i8], ptr, [64 x i8], i64, i32, i64, [32 x i8], ptr, ptr, ptr, i64, ptr, [32 x i8], i64, i32, ptr, ptr, i32, i32, ptr, ptr, ptr, ptr, ptr, i64, ptr, ptr, i64, i32, i32, i32, i64, i32, i32, i64, i64, i64, %struct.anon.1, ptr, i32, ptr, ptr, ptr, i32, ptr, ptr, ptr, i32, i32, i32, i32, ptr, i64, i32, ptr, %struct.srp_ctx_st, ptr, %struct.record_layer_st, ptr, ptr, ptr, ptr, i64, i32, i32, i32, i64, i64, i64, ptr, ptr, ptr, ptr, ptr, i64, ptr, i64, ptr, i64 }
%struct.ssl_st = type { i32, ptr, ptr, ptr, %struct.CRYPTO_REF_COUNT, ptr, %struct.crypto_ex_data_st }
%struct.CRYPTO_REF_COUNT = type { i32 }
%struct.crypto_ex_data_st = type { ptr, ptr }
%struct.OSSL_TIME = type { i64 }
%struct.ossl_statem_st = type { i32, i32, i32, i32, i32, i32, i32, i32, i32, i32, i32, i32, i32, ptr, ptr, ptr, i8 }
%struct.ossl_quic_tls_callbacks_st = type { ptr, ptr, ptr, ptr, ptr, ptr }
%struct.anon = type { i64, [32 x i8], [32 x i8], ptr, ptr, i32, i32, i32, i32, [2 x i8], i32, i32, i32, i32, %struct.anon.0, [64 x i8], i64, [64 x i8], i64, i32, i32, ptr, i64, ptr, i64, i32, i8, i8, i16, ptr, i16 }
%struct.anon.0 = type { [128 x i8], i64, [128 x i8], i64, i64, i32, ptr, ptr, [4 x ptr], [4 x i16], i64, i32, ptr, i64, ptr, i64, ptr, ptr, ptr, i32, i64, ptr, i32, ptr, i64, ptr, i64, ptr, i64, ptr, ptr, ptr, ptr, i64, i64, ptr, ptr, i32, i32, i32, i32 }
%struct.ssl_dane_st = type { ptr, ptr, ptr, ptr, ptr, i32, i32, i32, i64 }
%struct.anon.1 = type { [29 x i8], ptr, ptr, ptr, i32, ptr, i16, i32, %struct.anon.2, i32, i32, i64, ptr, i64, ptr, i64, ptr, i64, ptr, i64, ptr, i64, ptr, ptr, ptr, ptr, ptr, ptr, ptr, i64, ptr, i64, i32, i32, i32, i32, ptr, i64, i32, i8, i32, [4 x i32], i32, i8, i8, i8, i8 }
%struct.anon.2 = type { ptr, ptr, ptr, i64 }
%struct.srp_ctx_st = type { ptr, ptr, ptr, ptr, ptr, ptr, ptr, ptr, ptr, ptr, ptr, ptr, ptr, ptr, i32, i64 }
%struct.record_layer_st = type { ptr, ptr, ptr, ptr, ptr, ptr, ptr, ptr, i64, i32, i64, [4 x i8], i64, i64, i8, ptr, i32, ptr, ptr, ptr, i64, i64, i64, i64, [32 x %struct.tls_record_st] }
%struct.tls_record_st = type { ptr, i32, i8, ptr, ptr, i64, i64, i16, [8 x i8] }
%struct.ssl_method_st = type { i32, i32, i64, ptr, ptr, ptr, ptr, ptr, ptr, ptr, ptr, ptr, ptr, ptr, ptr, ptr, ptr, ptr, ptr, ptr, ptr, ptr, ptr, ptr, ptr, ptr, ptr, ptr, ptr, ptr, ptr, ptr }
%struct.ssl3_enc_method = type { ptr, ptr, ptr, ptr, ptr, i64, ptr, i64, ptr, ptr, i32, ptr, ptr, ptr }

@.str.1 = private unnamed_addr constant [36 x i8] c"../openssl/ssl/statem/statem_srvr.c\00", align 1
@__func__.tls_construct_server_certificate = private unnamed_addr constant [33 x i8] c"tls_construct_server_certificate\00", align 1

; Function Attrs: nounwind uwtable
define i32 @tls_construct_server_certificate(ptr noundef %0, ptr noundef %1) #0 {
  %3 = alloca i32, align 4
  %4 = alloca ptr, align 8
  %5 = alloca ptr, align 8
  %6 = alloca ptr, align 8
  %7 = alloca i32, align 4
  store ptr %0, ptr %4, align 8, !tbaa !11
  store ptr %1, ptr %5, align 8, !tbaa !145
  call void @llvm.lifetime.start.p0(i64 8, ptr %6) #9
  %8 = load ptr, ptr %4, align 8, !tbaa !11
  %9 = getelementptr inbounds nuw %struct.ssl_connection_st, ptr %8, i32 0, i32 24
  %10 = getelementptr inbounds nuw %struct.anon, ptr %9, i32 0, i32 14
  %11 = getelementptr inbounds nuw %struct.anon.0, ptr %10, i32 0, i32 30
  %12 = load ptr, ptr %11, align 8, !tbaa !174
  store ptr %12, ptr %6, align 8, !tbaa !175
  %13 = load ptr, ptr %6, align 8, !tbaa !175
  %14 = icmp eq ptr %13, null
  br i1 %14, label %15, label %17

15:                                               ; preds = %2
  call void @ERR_new()
  call void @ERR_set_debug(ptr noundef @.str.1, i32 noundef 3822, ptr noundef @__func__.tls_construct_server_certificate)
  %16 = load ptr, ptr %4, align 8, !tbaa !11
  call void (ptr, i32, i32, ptr, ...) @ossl_statem_fatal(ptr noundef %16, i32 noundef 80, i32 noundef 786691, ptr noundef null)
  store i32 0, ptr %3, align 4
  store i32 1, ptr %7, align 4
  br label %75

17:                                               ; preds = %2
  %18 = load ptr, ptr %4, align 8, !tbaa !11
  %19 = getelementptr inbounds nuw %struct.ssl_connection_st, ptr %18, i32 0, i32 0
  %20 = getelementptr inbounds nuw %struct.ssl_st, ptr %19, i32 0, i32 3
  %21 = load ptr, ptr %20, align 8, !tbaa !17
  %22 = getelementptr inbounds nuw %struct.ssl_method_st, ptr %21, i32 0, i32 28
  %23 = load ptr, ptr %22, align 8, !tbaa !77
  %24 = getelementptr inbounds nuw %struct.ssl3_enc_method, ptr %23, i32 0, i32 10
  %25 = load i32, ptr %24, align 8, !tbaa !80
  %26 = and i32 %25, 8
  %27 = icmp ne i32 %26, 0
  br i1 %27, label %50, label %28

28:                                               ; preds = %17
  %29 = load ptr, ptr %4, align 8, !tbaa !11
  %30 = getelementptr inbounds nuw %struct.ssl_connection_st, ptr %29, i32 0, i32 0
  %31 = getelementptr inbounds nuw %struct.ssl_st, ptr %30, i32 0, i32 3
  %32 = load ptr, ptr %31, align 8, !tbaa !17
  %33 = getelementptr inbounds nuw %struct.ssl_method_st, ptr %32, i32 0, i32 0
  %34 = load i32, ptr %33, align 8, !tbaa !82
  %35 = icmp sge i32 %34, 772
  br i1 %35, label %36, label %50

36:                                               ; preds = %28
  %37 = load ptr, ptr %4, align 8, !tbaa !11
  %38 = getelementptr inbounds nuw %struct.ssl_connection_st, ptr %37, i32 0, i32 0
  %39 = getelementptr inbounds nuw %struct.ssl_st, ptr %38, i32 0, i32 3
  %40 = load ptr, ptr %39, align 8, !tbaa !17
  %41 = getelementptr inbounds nuw %struct.ssl_method_st, ptr %40, i32 0, i32 0
  %42 = load i32, ptr %41, align 8, !tbaa !82
  %43 = icmp ne i32 %42, 65536
  br i1 %43, label %44, label %50

44:                                               ; preds = %36
  %45 = load ptr, ptr %5, align 8, !tbaa !145
  %46 = call i32 @WPACKET_put_bytes__(ptr noundef %45, i64 noundef 0, i64 noundef 1)
  %47 = icmp ne i32 %46, 0
  br i1 %47, label %50, label %48

48:                                               ; preds = %44
  call void @ERR_new()
  call void @ERR_set_debug(ptr noundef @.str.1, i32 noundef 3831, ptr noundef @__func__.tls_construct_server_certificate)
  %49 = load ptr, ptr %4, align 8, !tbaa !11
  call void (ptr, i32, i32, ptr, ...) @ossl_statem_fatal(ptr noundef %49, i32 noundef 80, i32 noundef 786691, ptr noundef null)
  store i32 0, ptr %3, align 4
  store i32 1, ptr %7, align 4
  br label %75

50:                                               ; preds = %44, %36, %28, %17
  %51 = load ptr, ptr %4, align 8, !tbaa !11
  %52 = getelementptr inbounds nuw %struct.ssl_connection_st, ptr %51, i32 0, i32 84
  %53 = getelementptr inbounds nuw %struct.anon.1, ptr %52, i32 0, i32 45
  %54 = load i8, ptr %53, align 2, !tbaa !176
  %55 = zext i8 %54 to i32
  switch i32 %55, label %72 [
    i32 2, label %56
    i32 0, label %64
  ]

56:                                               ; preds = %50
  %57 = load ptr, ptr %4, align 8, !tbaa !11
  %58 = load ptr, ptr %5, align 8, !tbaa !145
  %59 = load ptr, ptr %6, align 8, !tbaa !175
  %60 = call i64 @tls_output_rpk(ptr noundef %57, ptr noundef %58, ptr noundef %59)
  %61 = icmp ne i64 %60, 0
  br i1 %61, label %63, label %62

62:                                               ; preds = %56
  store i32 0, ptr %3, align 4
  store i32 1, ptr %7, align 4
  br label %75

63:                                               ; preds = %56
  br label %74

64:                                               ; preds = %50
  %65 = load ptr, ptr %4, align 8, !tbaa !11
  %66 = load ptr, ptr %5, align 8, !tbaa !145
  %67 = load ptr, ptr %6, align 8, !tbaa !175
  %68 = call i64 @ssl3_output_cert_chain(ptr noundef %65, ptr noundef %66, ptr noundef %67, i32 noundef 0)
  %69 = icmp ne i64 %68, 0
  br i1 %69, label %71, label %70

70:                                               ; preds = %64
  store i32 0, ptr %3, align 4
  store i32 1, ptr %7, align 4
  br label %75

71:                                               ; preds = %64
  br label %74

72:                                               ; preds = %50
  call void @ERR_new()
  call void @ERR_set_debug(ptr noundef @.str.1, i32 noundef 3848, ptr noundef @__func__.tls_construct_server_certificate)
  %73 = load ptr, ptr %4, align 8, !tbaa !11
  call void (ptr, i32, i32, ptr, ...) @ossl_statem_fatal(ptr noundef %73, i32 noundef 80, i32 noundef 786691, ptr noundef null)
  store i32 0, ptr %3, align 4
  store i32 1, ptr %7, align 4
  br label %75

74:                                               ; preds = %71, %63
  store i32 1, ptr %3, align 4
  store i32 1, ptr %7, align 4
  br label %75

75:                                               ; preds = %74, %72, %70, %62, %48, %15
  call void @llvm.lifetime.end.p0(i64 8, ptr %6) #9
  %76 = load i32, ptr %3, align 4
  ret i32 %76
}