; Function Attrs: nounwind uwtable
define range(i32 0, 2) i32 @tls_construct_server_certificate(ptr noundef %0, ptr noundef %1) #1 {
  %3 = getelementptr inbounds nuw i8, ptr %0, i64 984
  %4 = load ptr, ptr %3, align 8, !tbaa !160
  %5 = icmp eq ptr %4, null
  br i1 %5, label %6, label %7

6:                                                ; preds = %2
  tail call void @ERR_new() #12
  tail call void @ERR_set_debug(ptr noundef nonnull @.str.1, i32 noundef 3822, ptr noundef nonnull @__func__.tls_construct_server_certificate) #12
  tail call void (ptr, i32, i32, ptr, ...) @ossl_statem_fatal(ptr noundef nonnull %0, i32 noundef 80, i32 noundef 786691, ptr noundef null) #12
  br label %30

7:                                                ; preds = %2
  %8 = getelementptr inbounds nuw i8, ptr %0, i64 24
  %9 = load ptr, ptr %8, align 8, !tbaa !3
  %10 = getelementptr inbounds nuw i8, ptr %9, i64 216
  %11 = load ptr, ptr %10, align 8, !tbaa !69
  %12 = getelementptr inbounds nuw i8, ptr %11, i64 80
  %13 = load i32, ptr %12, align 8, !tbaa !72
  %14 = and i32 %13, 8
  %.not = icmp eq i32 %14, 0
  br i1 %.not, label %15, label %21

15:                                               ; preds = %7
  %16 = load i32, ptr %9, align 8, !tbaa !74
  %17 = icmp slt i32 %16, 772
  %.not18 = icmp eq i32 %16, 65536
  %or.cond = or i1 %17, %.not18
  br i1 %or.cond, label %21, label %18

18:                                               ; preds = %15
  %19 = tail call i32 @WPACKET_put_bytes__(ptr noundef %1, i64 noundef 0, i64 noundef 1) #12
  %.not19 = icmp eq i32 %19, 0
  br i1 %.not19, label %20, label %21

20:                                               ; preds = %18
  tail call void @ERR_new() #12
  tail call void @ERR_set_debug(ptr noundef nonnull @.str.1, i32 noundef 3831, ptr noundef nonnull @__func__.tls_construct_server_certificate) #12
  tail call void (ptr, i32, i32, ptr, ...) @ossl_statem_fatal(ptr noundef nonnull %0, i32 noundef 80, i32 noundef 786691, ptr noundef null) #12
  br label %30

21:                                               ; preds = %18, %15, %7
  %22 = getelementptr inbounds nuw i8, ptr %0, i64 2898
  %23 = load i8, ptr %22, align 2, !tbaa !161
  switch i8 %23, label %28 [
    i8 2, label %24
    i8 0, label %26
  ]

24:                                               ; preds = %21
  %25 = tail call i64 @tls_output_rpk(ptr noundef nonnull %0, ptr noundef %1, ptr noundef nonnull %4) #12
  %.not21 = icmp eq i64 %25, 0
  br i1 %.not21, label %30, label %29

26:                                               ; preds = %21
  %27 = tail call i64 @ssl3_output_cert_chain(ptr noundef nonnull %0, ptr noundef %1, ptr noundef nonnull %4, i32 noundef 0) #12
  %.not20 = icmp eq i64 %27, 0
  br i1 %.not20, label %30, label %29

28:                                               ; preds = %21
  tail call void @ERR_new() #12
  tail call void @ERR_set_debug(ptr noundef nonnull @.str.1, i32 noundef 3848, ptr noundef nonnull @__func__.tls_construct_server_certificate) #12
  tail call void (ptr, i32, i32, ptr, ...) @ossl_statem_fatal(ptr noundef nonnull %0, i32 noundef 80, i32 noundef 786691, ptr noundef null) #12
  br label %30

29:                                               ; preds = %26, %24
  br label %30

30:                                               ; preds = %26, %24, %29, %28, %20, %6
  %.0 = phi i32 [ 0, %6 ], [ 0, %28 ], [ 1, %29 ], [ 0, %20 ], [ 0, %24 ], [ 0, %26 ]
  ret i32 %.0
}